target datalayout = "e-m:e-p270:32:32-p271:32:32-p272:64:64-i64:64-i128:128-f80:128-n8:16:32:64-S128"
target triple = "x86_64-pc-linux-gnu"

%struct.GPU_ShaderSources = type { %struct.GPU_ShaderModuleSource, i32, i32 }
%struct.GPU_ShaderModuleSource = type { ptr, i32, i32 }
%struct.GPU_Shaders = type { [3 x ptr], [6 x ptr] }
%struct.SDL_GPUShaderCreateInfo = type { i64, ptr, ptr, i32, i32, i32, i32, i32, i32, i32 }

@.str.6 = private unnamed_addr constant [24 x i8] c"Unsupported GPU backend\00", align 1
@.str.7 = private unnamed_addr constant [5 x i8] c"main\00", align 1

; Function Attrs: nounwind uwtable
define hidden void @GPU_ReleaseShaders(ptr noundef %0, ptr noundef %1) #0 {
  %3 = alloca ptr, align 8
  %4 = alloca ptr, align 8
  %5 = alloca i32, align 4
  %6 = alloca i32, align 4
  store ptr %0, ptr %3, align 8
  store ptr %1, ptr %4, align 8
  call void @llvm.lifetime.start.p0(i64 4, ptr %5) #4
  store i32 0, ptr %5, align 4
  br label %7

7:                                                ; preds = %25, %2
  %8 = load i32, ptr %5, align 4
  %9 = sext i32 %8 to i64
  %10 = icmp ult i64 %9, 3
  br i1 %10, label %12, label %11

11:                                               ; preds = %7
  call void @llvm.lifetime.end.p0(i64 4, ptr %5) #4
  br label %28

12:                                               ; preds = %7
  %13 = load ptr, ptr %4, align 8
  %14 = load ptr, ptr %3, align 8
  %15 = getelementptr inbounds nuw %struct.GPU_Shaders, ptr %14, i32 0, i32 0
  %16 = load i32, ptr %5, align 4
  %17 = sext i32 %16 to i64
  %18 = getelementptr inbounds [3 x ptr], ptr %15, i64 0, i64 %17
  %19 = load ptr, ptr %18, align 8
  call void @SDL_ReleaseGPUShader_REAL(ptr noundef %13, ptr noundef %19)
  %20 = load ptr, ptr %3, align 8
  %21 = getelementptr inbounds nuw %struct.GPU_Shaders, ptr %20, i32 0, i32 0
  %22 = load i32, ptr %5, align 4
  %23 = sext i32 %22 to i64
  %24 = getelementptr inbounds [3 x ptr], ptr %21, i64 0, i64 %23
  store ptr null, ptr %24, align 8
  br label %25

25:                                               ; preds = %12
  %26 = load i32, ptr %5, align 4
  %27 = add nsw i32 %26, 1
  store i32 %27, ptr %5, align 4
  br label %7, !llvm.loop !6

28:                                               ; preds = %11
  call void @llvm.lifetime.start.p0(i64 4, ptr %6) #4
  store i32 0, ptr %6, align 4
  br label %29

29:                                               ; preds = %51, %28
  %30 = load i32, ptr %6, align 4
  %31 = sext i32 %30 to i64
  %32 = icmp ult i64 %31, 6
  br i1 %32, label %34, label %33

33:                                               ; preds = %29
  call void @llvm.lifetime.end.p0(i64 4, ptr %6) #4
  br label %54

34:                                               ; preds = %29
  %35 = load i32, ptr %6, align 4
  %36 = icmp eq i32 %35, 5
  br i1 %36, label %37, label %38

37:                                               ; preds = %34
  br label %51

38:                                               ; preds = %34
  %39 = load ptr, ptr %4, align 8
  %40 = load ptr, ptr %3, align 8
  %41 = getelementptr inbounds nuw %struct.GPU_Shaders, ptr %40, i32 0, i32 1
  %42 = load i32, ptr %6, align 4
  %43 = sext i32 %42 to i64
  %44 = getelementptr inbounds [6 x ptr], ptr %41, i64 0, i64 %43
  %45 = load ptr, ptr %44, align 8
  call void @SDL_ReleaseGPUShader_REAL(ptr noundef %39, ptr noundef %45)
  %46 = load ptr, ptr %3, align 8
  %47 = getelementptr inbounds nuw %struct.GPU_Shaders, ptr %46, i32 0, i32 1
  %48 = load i32, ptr %6, align 4
  %49 = sext i32 %48 to i64
  %50 = getelementptr inbounds [6 x ptr], ptr %47, i64 0, i64 %49
  store ptr null, ptr %50, align 8
  br label %51

51:                                               ; preds = %38, %37
  %52 = load i32, ptr %6, align 4
  %53 = add nsw i32 %52, 1
  store i32 %53, ptr %6, align 4
  br label %29, !llvm.loop !7

54:                                               ; preds = %33
  ret void
}

; Function Attrs: nounwind uwtable
define internal ptr @CompileShader(ptr noundef %0, ptr noundef %1, i32 noundef %2) #0 {
  %4 = alloca ptr, align 8
  %5 = alloca ptr, align 8
  %6 = alloca ptr, align 8
  %7 = alloca i32, align 4
  %8 = alloca ptr, align 8
  %9 = alloca i32, align 4
  %10 = alloca i32, align 4
  %11 = alloca %struct.SDL_GPUShaderCreateInfo, align 8
  store ptr %0, ptr %5, align 8
  store ptr %1, ptr %6, align 8
  store i32 %2, ptr %7, align 4
  call void @llvm.lifetime.start.p0(i64 8, ptr %8) #4
  store ptr null, ptr %8, align 8
  call void @llvm.lifetime.start.p0(i64 4, ptr %9) #4
  %12 = load ptr, ptr %6, align 8
  %13 = call i32 @SDL_GetGPUShaderFormats_REAL(ptr noundef %12)
  store i32 %13, ptr %9, align 4
  %14 = load i32, ptr %9, align 4
  %15 = icmp eq i32 %14, 0
  br i1 %15, label %16, label %17

16:                                               ; preds = %3
  store ptr null, ptr %4, align 8
  store i32 1, ptr %10, align 4
  br label %54

17:                                               ; preds = %3
  %18 = load i32, ptr %9, align 4
  %19 = and i32 %18, 2
  %20 = icmp ne i32 %19, 0
  br i1 %20, label %21, label %24

21:                                               ; preds = %17
  %22 = load ptr, ptr %5, align 8
  %23 = getelementptr inbounds nuw %struct.GPU_ShaderSources, ptr %22, i32 0, i32 0
  store ptr %23, ptr %8, align 8
  br label %26

24:                                               ; preds = %17
  %25 = call zeroext i1 (ptr, ...) @SDL_SetError_REAL(ptr noundef @.str.6)
  store ptr null, ptr %4, align 8
  store i32 1, ptr %10, align 4
  br label %54

26:                                               ; preds = %21
  br label %27

27:                                               ; preds = %26
  call void @llvm.lifetime.start.p0(i64 56, ptr %11) #4
  call void @llvm.memset.p0.i64(ptr align 8 %11, i8 0, i64 56, i1 false)
  %28 = load ptr, ptr %8, align 8
  %29 = getelementptr inbounds nuw %struct.GPU_ShaderModuleSource, ptr %28, i32 0, i32 0
  %30 = load ptr, ptr %29, align 8
  %31 = getelementptr inbounds nuw %struct.SDL_GPUShaderCreateInfo, ptr %11, i32 0, i32 1
  store ptr %30, ptr %31, align 8
  %32 = load ptr, ptr %8, align 8
  %33 = getelementptr inbounds nuw %struct.GPU_ShaderModuleSource, ptr %32, i32 0, i32 1
  %34 = load i32, ptr %33, align 8
  %35 = zext i32 %34 to i64
  %36 = getelementptr inbounds nuw %struct.SDL_GPUShaderCreateInfo, ptr %11, i32 0, i32 0
  store i64 %35, ptr %36, align 8
  %37 = load ptr, ptr %8, align 8
  %38 = getelementptr inbounds nuw %struct.GPU_ShaderModuleSource, ptr %37, i32 0, i32 2
  %39 = load i32, ptr %38, align 4
  %40 = getelementptr inbounds nuw %struct.SDL_GPUShaderCreateInfo, ptr %11, i32 0, i32 3
  store i32 %39, ptr %40, align 8
  %41 = getelementptr inbounds nuw %struct.SDL_GPUShaderCreateInfo, ptr %11, i32 0, i32 2
  store ptr @.str.7, ptr %41, align 8
  %42 = load ptr, ptr %5, align 8
  %43 = getelementptr inbounds nuw %struct.GPU_ShaderSources, ptr %42, i32 0, i32 1
  %44 = load i32, ptr %43, align 8
  %45 = getelementptr inbounds nuw %struct.SDL_GPUShaderCreateInfo, ptr %11, i32 0, i32 5
  store i32 %44, ptr %45, align 8
  %46 = load ptr, ptr %5, align 8
  %47 = getelementptr inbounds nuw %struct.GPU_ShaderSources, ptr %46, i32 0, i32 2
  %48 = load i32, ptr %47, align 4
  %49 = getelementptr inbounds nuw %struct.SDL_GPUShaderCreateInfo, ptr %11, i32 0, i32 8
  store i32 %48, ptr %49, align 4
  %50 = load i32, ptr %7, align 4
  %51 = getelementptr inbounds nuw %struct.SDL_GPUShaderCreateInfo, ptr %11, i32 0, i32 4
  store i32 %50, ptr %51, align 4
  %52 = load ptr, ptr %6, align 8
  %53 = call ptr @SDL_CreateGPUShader_REAL(ptr noundef %52, ptr noundef %11)
  store ptr %53, ptr %4, align 8
  store i32 1, ptr %10, align 4
  call void @llvm.lifetime.end.p0(i64 56, ptr %11) #4
  br label %54

54:                                               ; preds = %27, %24, %16
  call void @llvm.lifetime.end.p0(i64 4, ptr %9) #4
  call void @llvm.lifetime.end.p0(i64 8, ptr %8) #4
  %55 = load ptr, ptr %4, align 8
  ret ptr %55
}

; Function Attrs: nounwind uwtable
define hidden zeroext i1 @GPU_InitShaders(ptr noundef %0, ptr noundef %1) #0 {
  %3 = alloca i1, align 1
  %4 = alloca ptr, align 8
  %5 = alloca ptr, align 8
  %6 = alloca i32, align 4
  %7 = alloca i32, align 4
  %8 = alloca i32, align 4
  store ptr %0, ptr %4, align 8
  store ptr %1, ptr %5, align 8
  call void @llvm.lifetime.start.p0(i64 4, ptr %6) #4
  store i32 0, ptr %6, align 4
  br label %9

9:                                                ; preds = %36, %2
  %10 = load i32, ptr %6, align 4
  %11 = sext i32 %10 to i64
  %12 = icmp ult i64 %11, 3
  br i1 %12, label %14, label %13

13:                                               ; preds = %9
  store i32 2, ptr %7, align 4
  br label %39

14:                                               ; preds = %9
  %15 = load i32, ptr %6, align 4
  %16 = sext i32 %15 to i64
  %17 = getelementptr inbounds [3 x %struct.GPU_ShaderSources], ptr @vert_shader_sources, i64 0, i64 %16
  %18 = load ptr, ptr %5, align 8
  %19 = call ptr @CompileShader(ptr noundef %17, ptr noundef %18, i32 noundef 0)
  %20 = load ptr, ptr %4, align 8
  %21 = getelementptr inbounds nuw %struct.GPU_Shaders, ptr %20, i32 0, i32 0
  %22 = load i32, ptr %6, align 4
  %23 = sext i32 %22 to i64
  %24 = getelementptr inbounds [3 x ptr], ptr %21, i64 0, i64 %23
  store ptr %19, ptr %24, align 8
  %25 = load ptr, ptr %4, align 8
  %26 = getelementptr inbounds nuw %struct.GPU_Shaders, ptr %25, i32 0, i32 0
  %27 = load i32, ptr %6, align 4
  %28 = sext i32 %27 to i64
  %29 = getelementptr inbounds [3 x ptr], ptr %26, i64 0, i64 %28
  %30 = load ptr, ptr %29, align 8
  %31 = icmp eq ptr %30, null
  br i1 %31, label %32, label %35

32:                                               ; preds = %14
  %33 = load ptr, ptr %4, align 8
  %34 = load ptr, ptr %5, align 8
  call void @GPU_ReleaseShaders(ptr noundef %33, ptr noundef %34)
  store i1 false, ptr %3, align 1
  store i32 1, ptr %7, align 4
  br label %39

35:                                               ; preds = %14
  br label %36

36:                                               ; preds = %35
  %37 = load i32, ptr %6, align 4
  %38 = add nsw i32 %37, 1
  store i32 %38, ptr %6, align 4
  br label %9, !llvm.loop !3

39:                                               ; preds = %32, %13
  call void @llvm.lifetime.end.p0(i64 4, ptr %6) #4
  %40 = load i32, ptr %7, align 4
  switch i32 %40, label %81 [
    i32 2, label %41
    i32 1, label %79
  ]

41:                                               ; preds = %39
  call void @llvm.lifetime.start.p0(i64 4, ptr %8) #4
  store i32 0, ptr %8, align 4
  br label %42

42:                                               ; preds = %73, %41
  %43 = load i32, ptr %8, align 4
  %44 = sext i32 %43 to i64
  %45 = icmp ult i64 %44, 6
  br i1 %45, label %47, label %46

46:                                               ; preds = %42
  store i32 5, ptr %7, align 4
  br label %76

47:                                               ; preds = %42
  %48 = load i32, ptr %8, align 4
  %49 = icmp eq i32 %48, 5
  br i1 %49, label %50, label %51

50:                                               ; preds = %47
  br label %73

51:                                               ; preds = %47
  %52 = load i32, ptr %8, align 4
  %53 = sext i32 %52 to i64
  %54 = getelementptr inbounds [6 x %struct.GPU_ShaderSources], ptr @frag_shader_sources, i64 0, i64 %53
  %55 = load ptr, ptr %5, align 8
  %56 = call ptr @CompileShader(ptr noundef %54, ptr noundef %55, i32 noundef 1)
  %57 = load ptr, ptr %4, align 8
  %58 = getelementptr inbounds nuw %struct.GPU_Shaders, ptr %57, i32 0, i32 1
  %59 = load i32, ptr %8, align 4
  %60 = sext i32 %59 to i64
  %61 = getelementptr inbounds [6 x ptr], ptr %58, i64 0, i64 %60
  store ptr %56, ptr %61, align 8
  %62 = load ptr, ptr %4, align 8
  %63 = getelementptr inbounds nuw %struct.GPU_Shaders, ptr %62, i32 0, i32 1
  %64 = load i32, ptr %8, align 4
  %65 = sext i32 %64 to i64
  %66 = getelementptr inbounds [6 x ptr], ptr %63, i64 0, i64 %65
  %67 = load ptr, ptr %66, align 8
  %68 = icmp eq ptr %67, null
  br i1 %68, label %69, label %72

69:                                               ; preds = %51
  %70 = load ptr, ptr %4, align 8
  %71 = load ptr, ptr %5, align 8
  call void @GPU_ReleaseShaders(ptr noundef %70, ptr noundef %71)
  store i1 false, ptr %3, align 1
  store i32 1, ptr %7, align 4
  br label %76

72:                                               ; preds = %51
  br label %73

73:                                               ; preds = %72, %50
  %74 = load i32, ptr %8, align 4
  %75 = add nsw i32 %74, 1
  store i32 %75, ptr %8, align 4
  br label %42, !llvm.loop !5

76:                                               ; preds = %69, %46
  call void @llvm.lifetime.end.p0(i64 4, ptr %8) #4
  %77 = load i32, ptr %7, align 4
  switch i32 %77, label %81 [
    i32 5, label %78
    i32 1, label %79
  ]

78:                                               ; preds = %76
  store i1 true, ptr %3, align 1
  br label %79

79:                                               ; preds = %78, %76, %39
  %80 = load i1, ptr %3, align 1
  ret i1 %80

81:                                               ; preds = %76, %39
  unreachable
}