; Function Attrs: nounwind uwtable
define hidden noundef zeroext i1 @GPU_InitShaders(ptr noundef captures(none) %0, ptr noundef %1) local_unnamed_addr #0 {
  %3 = alloca %struct.SDL_GPUShaderCreateInfo, align 8
  %4 = alloca %struct.SDL_GPUShaderCreateInfo, align 8
  %5 = getelementptr inbounds nuw i8, ptr %4, i64 32
  %6 = getelementptr inbounds nuw i8, ptr %4, i64 8
  %7 = getelementptr inbounds nuw i8, ptr %4, i64 24
  %8 = getelementptr inbounds nuw i8, ptr %4, i64 16
  %9 = getelementptr inbounds nuw i8, ptr %4, i64 44
  %10 = getelementptr inbounds nuw i8, ptr %4, i64 28
  br label %19

11:                                               ; preds = %CompileShader.exit
  %indvars.iv.next = add nuw nsw i64 %indvars.iv, 1
  %exitcond.not = icmp eq i64 %indvars.iv.next, 3
  br i1 %exitcond.not, label %GPU_ReleaseShaders.exit.preheader, label %19, !llvm.loop !3

GPU_ReleaseShaders.exit.preheader:                ; preds = %11
  %12 = getelementptr inbounds nuw i8, ptr %3, i64 32
  %13 = getelementptr inbounds nuw i8, ptr %3, i64 8
  %14 = getelementptr inbounds nuw i8, ptr %3, i64 24
  %15 = getelementptr inbounds nuw i8, ptr %3, i64 16
  %16 = getelementptr inbounds nuw i8, ptr %3, i64 44
  %17 = getelementptr inbounds nuw i8, ptr %3, i64 28
  %18 = getelementptr inbounds nuw i8, ptr %0, i64 24
  br label %42

19:                                               ; preds = %2, %11
  %indvars.iv = phi i64 [ 0, %2 ], [ %indvars.iv.next, %11 ]
  %20 = getelementptr inbounds nuw [3 x %struct.GPU_ShaderSources], ptr @vert_shader_sources, i64 0, i64 %indvars.iv
  %21 = call i32 @SDL_GetGPUShaderFormats_REAL(ptr noundef %1) #5
  %22 = icmp eq i32 %21, 0
  br i1 %22, label %CompileShader.exit.thread, label %23

23:                                               ; preds = %19
  %24 = and i32 %21, 2
  %.not.i = icmp eq i32 %24, 0
  br i1 %.not.i, label %25, label %CompileShader.exit

25:                                               ; preds = %23
  %26 = call zeroext i1 (ptr, ...) @SDL_SetError_REAL(ptr noundef nonnull @.str.6) #5
  br label %CompileShader.exit.thread

CompileShader.exit.thread:                        ; preds = %19, %25
  %27 = getelementptr inbounds nuw [3 x ptr], ptr %0, i64 0, i64 %indvars.iv
  store ptr null, ptr %27, align 8
  br label %.loopexit48.preheader

.loopexit48.preheader:                            ; preds = %CompileShader.exit, %CompileShader.exit.thread
  br label %.loopexit48

CompileShader.exit:                               ; preds = %23
  call void @llvm.lifetime.start.p0(i64 56, ptr nonnull %4) #5
  call void @llvm.memset.p0.i64(ptr noundef nonnull align 8 dereferenceable(24) %5, i8 0, i64 24, i1 false)
  %28 = load ptr, ptr %20, align 8
  store ptr %28, ptr %6, align 8
  %29 = getelementptr inbounds nuw i8, ptr %20, i64 8
  %30 = load i32, ptr %29, align 8
  %31 = zext i32 %30 to i64
  store i64 %31, ptr %4, align 8
  store i32 2, ptr %7, align 8
  store ptr @.str.7, ptr %8, align 8
  store i32 1, ptr %9, align 4
  store i32 0, ptr %10, align 4
  %32 = call ptr @SDL_CreateGPUShader_REAL(ptr noundef %1, ptr noundef nonnull %4) #5
  call void @llvm.lifetime.end.p0(i64 56, ptr nonnull %4) #5
  %33 = getelementptr inbounds nuw [3 x ptr], ptr %0, i64 0, i64 %indvars.iv
  store ptr %32, ptr %33, align 8
  %34 = icmp eq ptr %32, null
  br i1 %34, label %.loopexit48.preheader, label %11

.preheader.i:                                     ; preds = %.loopexit48
  %35 = getelementptr inbounds nuw i8, ptr %0, i64 24
  br label %38

.loopexit48:                                      ; preds = %.loopexit48.preheader, %.loopexit48
  %indvars.iv.i = phi i64 [ %indvars.iv.next.i, %.loopexit48 ], [ 0, %.loopexit48.preheader ]
  %36 = getelementptr inbounds nuw [3 x ptr], ptr %0, i64 0, i64 %indvars.iv.i
  %37 = load ptr, ptr %36, align 8
  call void @SDL_ReleaseGPUShader_REAL(ptr noundef %1, ptr noundef %37) #5
  store ptr null, ptr %36, align 8
  %indvars.iv.next.i = add nuw nsw i64 %indvars.iv.i, 1
  %exitcond.not.i = icmp eq i64 %indvars.iv.next.i, 3
  br i1 %exitcond.not.i, label %.preheader.i, label %.loopexit48, !llvm.loop !5

38:                                               ; preds = %.preheader.i, %38
  %indvars.iv20.i62 = phi i64 [ 0, %.preheader.i ], [ %indvars.iv.next21.i, %38 ]
  %39 = getelementptr inbounds nuw [6 x ptr], ptr %35, i64 0, i64 %indvars.iv20.i62
  %40 = load ptr, ptr %39, align 8
  call void @SDL_ReleaseGPUShader_REAL(ptr noundef %1, ptr noundef %40) #5
  store ptr null, ptr %39, align 8
  %indvars.iv.next21.i = add nuw nsw i64 %indvars.iv20.i62, 1
  %41 = icmp eq i64 %indvars.iv.next21.i, 5
  br i1 %41, label %GPU_ReleaseShaders.exit.thread, label %38

42:                                               ; preds = %GPU_ReleaseShaders.exit.preheader, %GPU_ReleaseShaders.exit
  %indvars.iv73100 = phi i64 [ 0, %GPU_ReleaseShaders.exit.preheader ], [ %indvars.iv.next74, %GPU_ReleaseShaders.exit ]
  %43 = getelementptr inbounds nuw [6 x %struct.GPU_ShaderSources], ptr @frag_shader_sources, i64 0, i64 %indvars.iv73100
  %44 = call i32 @SDL_GetGPUShaderFormats_REAL(ptr noundef %1) #5
  %45 = icmp eq i32 %44, 0
  br i1 %45, label %CompileShader.exit33.thread, label %46

46:                                               ; preds = %42
  %47 = and i32 %44, 2
  %.not.i31 = icmp eq i32 %47, 0
  br i1 %.not.i31, label %48, label %CompileShader.exit33

48:                                               ; preds = %46
  %49 = call zeroext i1 (ptr, ...) @SDL_SetError_REAL(ptr noundef nonnull @.str.6) #5
  br label %CompileShader.exit33.thread

CompileShader.exit33.thread:                      ; preds = %42, %48
  %50 = getelementptr inbounds nuw [6 x ptr], ptr %18, i64 0, i64 %indvars.iv73100
  store ptr null, ptr %50, align 8
  br label %.loopexit.preheader

CompileShader.exit33:                             ; preds = %46
  call void @llvm.lifetime.start.p0(i64 56, ptr nonnull %3) #5
  call void @llvm.memset.p0.i64(ptr noundef nonnull align 8 dereferenceable(24) %12, i8 0, i64 24, i1 false)
  %51 = load ptr, ptr %43, align 8
  store ptr %51, ptr %13, align 8
  %52 = getelementptr inbounds nuw i8, ptr %43, i64 8
  %53 = load i32, ptr %52, align 8
  %54 = zext i32 %53 to i64
  store i64 %54, ptr %3, align 8
  %55 = getelementptr inbounds nuw i8, ptr %43, i64 12
  %56 = load i32, ptr %55, align 4
  store i32 %56, ptr %14, align 8
  store ptr @.str.7, ptr %15, align 8
  %57 = getelementptr inbounds nuw i8, ptr %43, i64 16
  %58 = load i32, ptr %57, align 8
  store i32 %58, ptr %12, align 8
  %59 = getelementptr inbounds nuw i8, ptr %43, i64 20
  %60 = load i32, ptr %59, align 4
  store i32 %60, ptr %16, align 4
  store i32 1, ptr %17, align 4
  %61 = call ptr @SDL_CreateGPUShader_REAL(ptr noundef %1, ptr noundef nonnull %3) #5
  call void @llvm.lifetime.end.p0(i64 56, ptr nonnull %3) #5
  %62 = getelementptr inbounds nuw [6 x ptr], ptr %18, i64 0, i64 %indvars.iv73100
  store ptr %61, ptr %62, align 8
  %63 = icmp eq ptr %61, null
  br i1 %63, label %.loopexit.preheader, label %GPU_ReleaseShaders.exit

.loopexit.preheader:                              ; preds = %CompileShader.exit33, %CompileShader.exit33.thread
  br label %.loopexit

.loopexit:                                        ; preds = %.loopexit.preheader, %.loopexit
  %indvars.iv.i34 = phi i64 [ %indvars.iv.next.i35, %.loopexit ], [ 0, %.loopexit.preheader ]
  %64 = getelementptr inbounds nuw [3 x ptr], ptr %0, i64 0, i64 %indvars.iv.i34
  %65 = load ptr, ptr %64, align 8
  call void @SDL_ReleaseGPUShader_REAL(ptr noundef %1, ptr noundef %65) #5
  store ptr null, ptr %64, align 8
  %indvars.iv.next.i35 = add nuw nsw i64 %indvars.iv.i34, 1
  %exitcond.not.i36 = icmp eq i64 %indvars.iv.next.i35, 3
  br i1 %exitcond.not.i36, label %.preheader.i37, label %.loopexit, !llvm.loop !5

.preheader.i37:                                   ; preds = %.loopexit, %.preheader.i37
  %indvars.iv20.i3861 = phi i64 [ %indvars.iv.next21.i39, %.preheader.i37 ], [ 0, %.loopexit ]
  %66 = getelementptr inbounds nuw [6 x ptr], ptr %18, i64 0, i64 %indvars.iv20.i3861
  %67 = load ptr, ptr %66, align 8
  call void @SDL_ReleaseGPUShader_REAL(ptr noundef %1, ptr noundef %67) #5
  store ptr null, ptr %66, align 8
  %indvars.iv.next21.i39 = add nuw nsw i64 %indvars.iv20.i3861, 1
  %68 = icmp eq i64 %indvars.iv.next21.i39, 5
  br i1 %68, label %GPU_ReleaseShaders.exit.thread, label %.preheader.i37

GPU_ReleaseShaders.exit:                          ; preds = %CompileShader.exit33
  %indvars.iv.next74 = add nuw nsw i64 %indvars.iv73100, 1
  %69 = icmp eq i64 %indvars.iv.next74, 5
  br i1 %69, label %GPU_ReleaseShaders.exit.thread, label %42

GPU_ReleaseShaders.exit.thread:                   ; preds = %GPU_ReleaseShaders.exit, %.preheader.i37, %38
  %.126 = phi i1 [ false, %38 ], [ false, %.preheader.i37 ], [ true, %GPU_ReleaseShaders.exit ]
  ret i1 %.126
}